ARM GAS  C:\Users\STUDENT\AppData\Local\Temp\ccX9HRE7.s 			page 1


   1              		.syntax unified
   2              		.cpu cortex-m0
   3              		.fpu softvfp
   4              		.eabi_attribute 20, 1
   5              		.eabi_attribute 21, 1
   6              		.eabi_attribute 23, 3
   7              		.eabi_attribute 24, 1
   8              		.eabi_attribute 25, 1
   9              		.eabi_attribute 26, 1
  10              		.eabi_attribute 30, 1
  11              		.eabi_attribute 34, 0
  12              		.eabi_attribute 18, 4
  13              		.thumb
  14              		.syntax unified
  15              		.file	"main.c"
  16              		.text
  17              	.Ltext0:
  18              		.cfi_sections	.debug_frame
  19              		.section	.text.main,"ax",%progbits
  20              		.align	2
  21              		.global	main
  22              		.code	16
  23              		.thumb_func
  24              		.type	main, %function
  25              	main:
  26              	.LFB32:
  27              		.file 1 "main.c"
   1:main.c        **** #include "project.h"
   2:main.c        **** 
   3:main.c        **** int main(void)
   4:main.c        **** {
  28              		.loc 1 4 0
  29              		.cfi_startproc
  30              		@ args = 0, pretend = 0, frame = 0
  31              		@ frame_needed = 0, uses_anonymous_args = 0
  32 0000 70B5     		push	{r4, r5, r6, lr}
  33              		.cfi_def_cfa_offset 16
  34              		.cfi_offset 4, -16
  35              		.cfi_offset 5, -12
  36              		.cfi_offset 6, -8
  37              		.cfi_offset 14, -4
   5:main.c        ****     CyGlobalIntEnable; 
  38              		.loc 1 5 0
  39              		.syntax divided
  40              	@ 5 "main.c" 1
  41 0002 62B6     		CPSIE   i
  42              	@ 0 "" 2
  43              	.LVL0:
   6:main.c        **** 
   7:main.c        ****     uint8 color_state = 0;
   8:main.c        ****     uint8 last_button_state = 1;
  44              		.loc 1 8 0
  45              		.thumb
  46              		.syntax unified
  47 0004 0125     		movs	r5, #1
   7:main.c        ****     uint8 last_button_state = 1;
  48              		.loc 1 7 0
ARM GAS  C:\Users\STUDENT\AppData\Local\Temp\ccX9HRE7.s 			page 2


  49 0006 0026     		movs	r6, #0
  50 0008 00E0     		b	.L2
  51              	.LVL1:
  52              	.L3:
  53 000a 2500     		movs	r5, r4
  54              	.LVL2:
  55              	.L2:
  56              	.LBB2:
   9:main.c        **** 
  10:main.c        ****     for(;;)
  11:main.c        ****     {
  12:main.c        ****         uint8 current_button_state = Button_Read();
  57              		.loc 1 12 0
  58 000c FFF7FEFF 		bl	Button_Read
  59              	.LVL3:
  60 0010 0400     		movs	r4, r0
  61              	.LVL4:
  13:main.c        **** 
  14:main.c        ****         if (last_button_state == 1 && current_button_state == 0)
  62              		.loc 1 14 0
  63 0012 012D     		cmp	r5, #1
  64 0014 F9D1     		bne	.L3
  65              		.loc 1 14 0 is_stmt 0 discriminator 1
  66 0016 0028     		cmp	r0, #0
  67 0018 F7D1     		bne	.L3
  15:main.c        ****         {
  16:main.c        ****             color_state++;
  68              		.loc 1 16 0 is_stmt 1
  69 001a 0136     		adds	r6, r6, #1
  70              	.LVL5:
  71 001c F6B2     		uxtb	r6, r6
  72              	.LVL6:
  17:main.c        ****             if (color_state > 7) color_state = 0;
  73              		.loc 1 17 0
  74 001e 072E     		cmp	r6, #7
  75 0020 00D9     		bls	.L4
  76 0022 0026     		movs	r6, #0
  77              	.LVL7:
  78              	.L4:
  18:main.c        **** 
  19:main.c        ****             LED_Red_Write(1);
  79              		.loc 1 19 0
  80 0024 0120     		movs	r0, #1
  81              	.LVL8:
  82 0026 FFF7FEFF 		bl	LED_Red_Write
  83              	.LVL9:
  20:main.c        ****             LED_Green_Write(1);
  84              		.loc 1 20 0
  85 002a 0120     		movs	r0, #1
  86 002c FFF7FEFF 		bl	LED_Green_Write
  87              	.LVL10:
  21:main.c        ****             LED_Blue_Write(1);
  88              		.loc 1 21 0
  89 0030 0120     		movs	r0, #1
  90 0032 FFF7FEFF 		bl	LED_Blue_Write
  91              	.LVL11:
  22:main.c        **** 
ARM GAS  C:\Users\STUDENT\AppData\Local\Temp\ccX9HRE7.s 			page 3


  23:main.c        ****             switch(color_state)
  92              		.loc 1 23 0
  93 0036 072E     		cmp	r6, #7
  94 0038 30D8     		bhi	.L5
  95 003a B300     		lsls	r3, r6, #2
  96 003c 194A     		ldr	r2, .L15
  97 003e D358     		ldr	r3, [r2, r3]
  98 0040 9F46     		mov	pc, r3
  99              		.section	.rodata
 100              		.align	2
 101              	.L7:
 102 0000 9C000000 		.word	.L5
 103 0004 42000000 		.word	.L6
 104 0008 4A000000 		.word	.L8
 105 000c 52000000 		.word	.L9
 106 0010 5A000000 		.word	.L10
 107 0014 68000000 		.word	.L11
 108 0018 76000000 		.word	.L12
 109 001c 8A000000 		.word	.L13
 110              		.section	.text.main
 111              	.L6:
  24:main.c        ****             {
  25:main.c        ****                 case 1:
  26:main.c        ****                     LED_Red_Write(0);
 112              		.loc 1 26 0
 113 0042 0020     		movs	r0, #0
 114 0044 FFF7FEFF 		bl	LED_Red_Write
 115              	.LVL12:
  27:main.c        ****                     break;
 116              		.loc 1 27 0
 117 0048 28E0     		b	.L5
 118              	.L8:
  28:main.c        ****                 case 2:
  29:main.c        ****                     LED_Green_Write(0);
 119              		.loc 1 29 0
 120 004a 0020     		movs	r0, #0
 121 004c FFF7FEFF 		bl	LED_Green_Write
 122              	.LVL13:
  30:main.c        ****                     break;
 123              		.loc 1 30 0
 124 0050 24E0     		b	.L5
 125              	.L9:
  31:main.c        ****                 case 3:
  32:main.c        ****                     LED_Blue_Write(0);
 126              		.loc 1 32 0
 127 0052 0020     		movs	r0, #0
 128 0054 FFF7FEFF 		bl	LED_Blue_Write
 129              	.LVL14:
  33:main.c        ****                     break;
 130              		.loc 1 33 0
 131 0058 20E0     		b	.L5
 132              	.L10:
  34:main.c        ****                 case 4:
  35:main.c        ****                     LED_Red_Write(0);
 133              		.loc 1 35 0
 134 005a 0020     		movs	r0, #0
 135 005c FFF7FEFF 		bl	LED_Red_Write
ARM GAS  C:\Users\STUDENT\AppData\Local\Temp\ccX9HRE7.s 			page 4


 136              	.LVL15:
  36:main.c        ****                     LED_Blue_Write(0);
 137              		.loc 1 36 0
 138 0060 0020     		movs	r0, #0
 139 0062 FFF7FEFF 		bl	LED_Blue_Write
 140              	.LVL16:
  37:main.c        ****                     break;
 141              		.loc 1 37 0
 142 0066 19E0     		b	.L5
 143              	.L11:
  38:main.c        ****                 case 5:
  39:main.c        ****                     LED_Red_Write(0);
 144              		.loc 1 39 0
 145 0068 0020     		movs	r0, #0
 146 006a FFF7FEFF 		bl	LED_Red_Write
 147              	.LVL17:
  40:main.c        ****                     LED_Green_Write(0);
 148              		.loc 1 40 0
 149 006e 0020     		movs	r0, #0
 150 0070 FFF7FEFF 		bl	LED_Green_Write
 151              	.LVL18:
  41:main.c        ****                     break;
 152              		.loc 1 41 0
 153 0074 12E0     		b	.L5
 154              	.L12:
  42:main.c        ****                 case 6:
  43:main.c        ****                     LED_Red_Write(0);
 155              		.loc 1 43 0
 156 0076 0020     		movs	r0, #0
 157 0078 FFF7FEFF 		bl	LED_Red_Write
 158              	.LVL19:
  44:main.c        ****                     LED_Green_Write(0);
 159              		.loc 1 44 0
 160 007c 0020     		movs	r0, #0
 161 007e FFF7FEFF 		bl	LED_Green_Write
 162              	.LVL20:
  45:main.c        ****                     LED_Blue_Write(0);
 163              		.loc 1 45 0
 164 0082 0020     		movs	r0, #0
 165 0084 FFF7FEFF 		bl	LED_Blue_Write
 166              	.LVL21:
  46:main.c        ****                     break;
 167              		.loc 1 46 0
 168 0088 08E0     		b	.L5
 169              	.L13:
  47:main.c        ****                     
  48:main.c        ****                  case 7: 
  49:main.c        ****                     LED_Green_Write(0);
 170              		.loc 1 49 0
 171 008a 0020     		movs	r0, #0
 172 008c FFF7FEFF 		bl	LED_Green_Write
 173              	.LVL22:
  50:main.c        ****                     LED_Blue_Write(0);
 174              		.loc 1 50 0
 175 0090 0020     		movs	r0, #0
 176 0092 FFF7FEFF 		bl	LED_Blue_Write
 177              	.LVL23:
ARM GAS  C:\Users\STUDENT\AppData\Local\Temp\ccX9HRE7.s 			page 5


  51:main.c        ****                     LED_Red_Write(1);
 178              		.loc 1 51 0
 179 0096 0120     		movs	r0, #1
 180 0098 FFF7FEFF 		bl	LED_Red_Write
 181              	.LVL24:
 182              	.L5:
  52:main.c        ****               break;
  53:main.c        ****                 case 0:
  54:main.c        ****                 default:
  55:main.c        ****                     break;
  56:main.c        ****                     
  57:main.c        ****                 
  58:main.c        ****             }
  59:main.c        ****             
  60:main.c        ****             CyDelay(50);
 183              		.loc 1 60 0
 184 009c 3220     		movs	r0, #50
 185 009e FFF7FEFF 		bl	CyDelay
 186              	.LVL25:
 187 00a2 B2E7     		b	.L3
 188              	.L16:
 189              		.align	2
 190              	.L15:
 191 00a4 00000000 		.word	.L7
 192              	.LBE2:
 193              		.cfi_endproc
 194              	.LFE32:
 195              		.size	main, .-main
 196              		.text
 197              	.Letext0:
 198              		.file 2 "Generated_Source\\PSoC4/Button.h"
 199              		.file 3 "Generated_Source\\PSoC4/LED_Red.h"
 200              		.file 4 "Generated_Source\\PSoC4/LED_Green.h"
 201              		.file 5 "Generated_Source\\PSoC4/LED_Blue.h"
 202              		.file 6 "Generated_Source\\PSoC4/CyLib.h"
 203              		.file 7 "Generated_Source\\PSoC4/cytypes.h"